#include <math.h>
#include <stdio.h>
#include <stdlib.h>
#include <string.h>

int main()
{
	int i,n,flag1,flag2;
	int x(int i);
	scanf("%d",&n);
	for(i=3;i<=n/2;i++)
	{
		flag1=0;
		flag2=0;
		flag1=x(i);
		flag2=x(n-i);
		if(flag1==1&&flag2==1)
		{
			printf("%d %d\n",i,n-i);
		}



	}
	return 0;
}
int x(int i)
{
	int j;
	for(j=2;j<=i;j++)
	{
		if(i%j==0)
			break;
	}
	if(j==i)
		return 1;
	else
		return 0;
}